target datalayout = "e-m:e-p270:32:32-p271:32:32-p272:64:64-i64:64-i128:128-f80:128-n8:16:32:64-S128"
target triple = "x86_64-pc-linux-gnu"

%"class.llvm::DWARFFormValue" = type { i16, i8, %"struct.llvm::DWARFFormValue::ValueType", ptr, ptr }
%"struct.llvm::DWARFFormValue::ValueType" = type { %union.anon, ptr, i64 }
%union.anon = type { i64 }
%"class.std::optional" = type { %"struct.std::_Optional_base" }
%"struct.std::_Optional_base" = type { %"struct.std::_Optional_payload" }
%"struct.std::_Optional_payload" = type { %"struct.std::_Optional_payload_base.base", [7 x i8] }
%"struct.std::_Optional_payload_base.base" = type <{ %"union.std::_Optional_payload_base<unsigned long>::_Storage", i8 }>
%"union.std::_Optional_payload_base<unsigned long>::_Storage" = type { i64 }
%"struct.std::_Optional_payload_base" = type <{ %"union.std::_Optional_payload_base<unsigned long>::_Storage", i8, [7 x i8] }>

; Function Attrs: mustprogress nounwind uwtable
define linkonce_odr hidden void @_ZNSt22_Optional_payload_baseImE8_StorageImLb1EEC2IJRKmEEESt10in_place_tDpOT_(ptr noundef nonnull align 8 dereferenceable(8) %0, ptr noundef nonnull align 8 dereferenceable(8) %1) unnamed_addr #0 comdat align 2 {
  %3 = alloca ptr, align 8
  %4 = alloca ptr, align 8
  store ptr %0, ptr %3, align 8
  store ptr %1, ptr %4, align 8
  %5 = load ptr, ptr %3, align 8
  %6 = load ptr, ptr %4, align 8
  %7 = load i64, ptr %6, align 8
  store i64 %7, ptr %5, align 8
  ret void
}

; Function Attrs: mustprogress nounwind uwtable
define linkonce_odr hidden void @_ZNSt22_Optional_payload_baseImE8_StorageImLb1EEC2Ev(ptr noundef nonnull align 8 dereferenceable(8) %0) unnamed_addr #0 comdat align 2 {
  %2 = alloca ptr, align 8
  store ptr %0, ptr %2, align 8
  ret void
}

; Function Attrs: mustprogress nounwind uwtable
define linkonce_odr hidden void @_ZNSt22_Optional_payload_baseImEC2IJRKmEEESt10in_place_tDpOT_(ptr noundef nonnull align 8 dereferenceable(9) %0, ptr noundef nonnull align 8 dereferenceable(8) %1) unnamed_addr #0 comdat align 2 {
  %3 = alloca ptr, align 8
  %4 = alloca ptr, align 8
  store ptr %0, ptr %3, align 8
  store ptr %1, ptr %4, align 8
  %5 = load ptr, ptr %3, align 8
  %6 = getelementptr inbounds nuw %"struct.std::_Optional_payload_base", ptr %5, i32 0, i32 0
  %7 = load ptr, ptr %4, align 8
  call void @_ZNSt22_Optional_payload_baseImE8_StorageImLb1EEC2IJRKmEEESt10in_place_tDpOT_(ptr noundef nonnull align 8 dereferenceable(8) %6, ptr noundef nonnull align 8 dereferenceable(8) %7)
  %8 = getelementptr inbounds nuw %"struct.std::_Optional_payload_base", ptr %5, i32 0, i32 1
  store i8 1, ptr %8, align 8
  ret void
}

; Function Attrs: mustprogress nounwind uwtable
define linkonce_odr hidden void @_ZNSt22_Optional_payload_baseImEC2Ev(ptr noundef nonnull align 8 dereferenceable(9) %0) unnamed_addr #0 comdat align 2 {
  %2 = alloca ptr, align 8
  store ptr %0, ptr %2, align 8
  %3 = load ptr, ptr %2, align 8
  %4 = getelementptr inbounds nuw %"struct.std::_Optional_payload_base", ptr %3, i32 0, i32 0
  call void @_ZNSt22_Optional_payload_baseImE8_StorageImLb1EEC2Ev(ptr noundef nonnull align 8 dereferenceable(8) %4) #9
  %5 = getelementptr inbounds nuw %"struct.std::_Optional_payload_base", ptr %3, i32 0, i32 1
  store i8 0, ptr %5, align 8
  ret void
}

; Function Attrs: mustprogress nounwind uwtable
define linkonce_odr hidden void @_ZNSt17_Optional_payloadImLb1ELb1ELb1EECI2St22_Optional_payload_baseImEIJRKmEEESt10in_place_tDpOT_(ptr noundef nonnull align 8 dereferenceable(9) %0, ptr noundef nonnull align 8 dereferenceable(8) %1) unnamed_addr #0 comdat align 2 {
  %3 = alloca ptr, align 8
  %4 = alloca ptr, align 8
  store ptr %0, ptr %3, align 8
  store ptr %1, ptr %4, align 8
  %5 = load ptr, ptr %3, align 8
  %6 = load ptr, ptr %4, align 8
  call void @_ZNSt22_Optional_payload_baseImEC2IJRKmEEESt10in_place_tDpOT_(ptr noundef nonnull align 8 dereferenceable(9) %5, ptr noundef nonnull align 8 dereferenceable(8) %6)
  ret void
}

; Function Attrs: mustprogress nounwind uwtable
define linkonce_odr hidden void @_ZNSt17_Optional_payloadImLb1ELb1ELb1EEC2Ev(ptr noundef nonnull align 8 dereferenceable(9) %0) unnamed_addr #0 comdat align 2 {
  %2 = alloca ptr, align 8
  store ptr %0, ptr %2, align 8
  %3 = load ptr, ptr %2, align 8
  call void @_ZNSt22_Optional_payload_baseImEC2Ev(ptr noundef nonnull align 8 dereferenceable(9) %3) #9
  ret void
}

; Function Attrs: mustprogress nounwind uwtable
define linkonce_odr hidden void @_ZNSt14_Optional_baseImLb1ELb1EEC2IJRKmETnNSt9enable_ifIX18is_constructible_vImDpT_EEbE4typeELb0EEESt10in_place_tDpOS5_(ptr noundef nonnull align 8 dereferenceable(16) %0, ptr noundef nonnull align 8 dereferenceable(8) %1) unnamed_addr #0 comdat align 2 {
  %3 = alloca ptr, align 8
  %4 = alloca ptr, align 8
  store ptr %0, ptr %3, align 8
  store ptr %1, ptr %4, align 8
  %5 = load ptr, ptr %3, align 8
  %6 = getelementptr inbounds nuw %"struct.std::_Optional_base", ptr %5, i32 0, i32 0
  %7 = load ptr, ptr %4, align 8
  call void @_ZNSt17_Optional_payloadImLb1ELb1ELb1EECI2St22_Optional_payload_baseImEIJRKmEEESt10in_place_tDpOT_(ptr noundef nonnull align 8 dereferenceable(9) %6, ptr noundef nonnull align 8 dereferenceable(8) %7)
  ret void
}

; Function Attrs: mustprogress nounwind uwtable
define linkonce_odr hidden void @_ZNSt14_Optional_baseImLb1ELb1EEC2Ev(ptr noundef nonnull align 8 dereferenceable(16) %0) unnamed_addr #0 comdat align 2 {
  %2 = alloca ptr, align 8
  store ptr %0, ptr %2, align 8
  %3 = load ptr, ptr %2, align 8
  %4 = getelementptr inbounds nuw %"struct.std::_Optional_base", ptr %3, i32 0, i32 0
  call void @_ZNSt17_Optional_payloadImLb1ELb1ELb1EEC2Ev(ptr noundef nonnull align 8 dereferenceable(9) %4) #9
  ret void
}

; Function Attrs: mustprogress nounwind uwtable
define linkonce_odr hidden void @_ZNSt8optionalImEC2IRKmTnNSt9enable_ifIX7__and_vISt6__not_ISt7is_sameIS0_NSt9remove_cvINSt16remove_referenceIT_E4typeEE4typeEEES5_IS6_ISt10in_place_tSD_EESt16is_constructibleImJS9_EESt14is_convertibleIS9_mEEEbE4typeELb1EEEOS9_(ptr noundef nonnull align 8 dereferenceable(16) %0, ptr noundef nonnull align 8 dereferenceable(8) %1) unnamed_addr #0 comdat align 2 {
  %3 = alloca ptr, align 8
  %4 = alloca ptr, align 8
  store ptr %0, ptr %3, align 8
  store ptr %1, ptr %4, align 8
  %5 = load ptr, ptr %3, align 8
  %6 = load ptr, ptr %4, align 8
  call void @_ZNSt14_Optional_baseImLb1ELb1EEC2IJRKmETnNSt9enable_ifIX18is_constructible_vImDpT_EEbE4typeELb0EEESt10in_place_tDpOS5_(ptr noundef nonnull align 8 dereferenceable(16) %5, ptr noundef nonnull align 8 dereferenceable(8) %6)
  ret void
}

; Function Attrs: mustprogress nounwind uwtable
define linkonce_odr hidden void @_ZNSt8optionalImEC2ESt9nullopt_t(ptr noundef nonnull align 8 dereferenceable(16) %0) unnamed_addr #0 comdat align 2 {
  %2 = alloca ptr, align 8
  store ptr %0, ptr %2, align 8
  %3 = load ptr, ptr %2, align 8
  call void @_ZNSt14_Optional_baseImLb1ELb1EEC2Ev(ptr noundef nonnull align 8 dereferenceable(16) %3) #9
  ret void
}

; Function Attrs: mustprogress nounwind uwtable
define dso_local { i64, i8 } @_ZNK4llvm14DWARFFormValue22getAsRelativeReferenceEv(ptr noundef nonnull align 8 dereferenceable(48) %0) #0 align 2 {
  %2 = alloca %"class.std::optional", align 8
  %3 = alloca ptr, align 8
  store ptr %0, ptr %3, align 8
  %4 = load ptr, ptr %3, align 8
  %5 = getelementptr inbounds nuw %"class.llvm::DWARFFormValue", ptr %4, i32 0, i32 0
  %6 = load i16, ptr %5, align 8
  %7 = zext i16 %6 to i32
  switch i32 %7, label %16 [
    i32 17, label %8
    i32 18, label %8
    i32 19, label %8
    i32 20, label %8
    i32 21, label %8
  ]

8:                                                ; preds = %1, %1, %1, %1, %1
  %9 = getelementptr inbounds nuw %"class.llvm::DWARFFormValue", ptr %4, i32 0, i32 3
  %10 = load ptr, ptr %9, align 8
  %11 = icmp ne ptr %10, null
  br i1 %11, label %13, label %12

12:                                               ; preds = %8
  call void @_ZNSt8optionalImEC2ESt9nullopt_t(ptr noundef nonnull align 8 dereferenceable(16) %2) #9
  br label %17

13:                                               ; preds = %8
  %14 = getelementptr inbounds nuw %"class.llvm::DWARFFormValue", ptr %4, i32 0, i32 2
  %15 = getelementptr inbounds nuw %"struct.llvm::DWARFFormValue::ValueType", ptr %14, i32 0, i32 0
  call void @_ZNSt8optionalImEC2IRKmTnNSt9enable_ifIX7__and_vISt6__not_ISt7is_sameIS0_NSt9remove_cvINSt16remove_referenceIT_E4typeEE4typeEEES5_IS6_ISt10in_place_tSD_EESt16is_constructibleImJS9_EESt14is_convertibleIS9_mEEEbE4typeELb1EEEOS9_(ptr noundef nonnull align 8 dereferenceable(16) %2, ptr noundef nonnull align 8 dereferenceable(8) %15) #9
  br label %17

16:                                               ; preds = %1
  call void @_ZNSt8optionalImEC2ESt9nullopt_t(ptr noundef nonnull align 8 dereferenceable(16) %2) #9
  br label %17

17:                                               ; preds = %16, %13, %12
  %18 = getelementptr inbounds nuw %"class.std::optional", ptr %2, i32 0, i32 0
  %19 = getelementptr inbounds nuw %"struct.std::_Optional_base", ptr %18, i32 0, i32 0
  %20 = load { i64, i8 }, ptr %19, align 8
  ret { i64, i8 } %20
}